; Function Attrs: mustprogress uwtable
define noundef i32 @_ZNK6icu_7711MeasureUnit17getDimensionalityER10UErrorCode(ptr noundef nonnull align 8 dereferenceable(19) %0, ptr noundef nonnull align 4 dereferenceable(4) %1) local_unnamed_addr #1 align 2 {
  %3 = tail call { i64, i32 } @_ZN6icu_7714SingleUnitImpl14forMeasureUnitERKNS_11MeasureUnitER10UErrorCode(ptr noundef nonnull align 8 dereferenceable(19) %0, ptr noundef nonnull align 4 dereferenceable(4) %1)
  %.fca.0.extract = extractvalue { i64, i32 } %3, 0
  %.fca.1.extract = extractvalue { i64, i32 } %3, 1
  %4 = load i32, ptr %1, align 4, !tbaa !13
  %5 = and i64 %.fca.0.extract, 4294967295
  %6 = icmp eq i64 %5, 4294967295
  %.inv = icmp sgt i32 %4, 0
  %7 = select i1 %.inv, i1 true, i1 %6
  %.0 = select i1 %7, i32 0, i32 %.fca.1.extract
  ret i32 %.0
}